ccopy_reg
_reconstructor
p0
(cStrategy
SimplexStrategy
p1
c__builtin__
object
p2
Ntp3
Rp4
(dp5
S'ranges'
p6
(lp7
(I0
I400
tp8
a(F0.5
I8
tp9
a(I-2
I2
tp10
a(I-1
I1
tp11
a(I-1
I1
tp12
asS'toTry'
p13
(lp14
sS'bestDist'
p15
F133.73481222179961
sS'bestIter'
p16
NsS'vertices'
p17
(lp18
((lp19
I400
aF0.5
aF1.6165849999999999
aF-0.403862
aF0.75117999999999996
aF133.73481222179961
tp20
a((lp21
I400
aF0.5
aF0.46633999999999975
aF-0.403862
aF0.75117999999999996
aF17.204650534085253
tp22
a((lp23
I400
aF0.5
aF1.6165849999999999
aF-0.403862
aF0.75117999999999996
aF105.54619841567009
tp24
a((lp25
I400
aF0.5
aF1.6165849999999999
aF-0.403862
aF0.95117999999999991
aF116.27553482998907
tp26
a((lp27
I400
aF0.5
aF1.6165849999999999
aF-0.20386199999999999
aF0.75117999999999996
aF88.051121514720066
tp28
a((lp29
I400
aF0.5
aF1.6165849999999999
aF-0.403862
aF0.75117999999999996
aF119.01680553602503
tp30
asS'current'
p31
(lp32
F201.18060199999999
aF1.8206720000000001
aF1.6165849999999999
aF-0.403862
aF0.75117999999999996
asS'beta'
p33
F0.5
sS'numParam'
p34
I5
sS'numVertices'
p35
I6
sS'iterations'
p36
I0
sS'delta'
p37
F0.5
sS'reflectDist'
p38
F90.426765949026404
sS'alpha'
p39
I1
sS'transformation'
p40
I1
sS'gamma'
p41
I2
sb.